; Function Attrs: mustprogress uwtable
define void @_ZN6icu_7717DateFormatSymbolsC2ERKNS_6LocaleEPKcR10UErrorCode(ptr noundef nonnull align 8 dereferenceable(976) initializes((0, 8), (312, 322)) %0, ptr noundef nonnull align 8 dereferenceable(217) %1, ptr noundef %2, ptr noundef nonnull align 4 dereferenceable(4) %3) unnamed_addr #1 align 2 personality ptr @__gxx_personality_v0 {
  store ptr getelementptr inbounds nuw inrange(-16, 24) (i8, ptr @_ZTVN6icu_7717DateFormatSymbolsE, i64 16), ptr %0, align 8, !tbaa !15
  %5 = getelementptr inbounds nuw i8, ptr %0, i64 312
  store ptr getelementptr inbounds nuw inrange(-16, 88) (i8, ptr @_ZTVN6icu_7713UnicodeStringE, i64 16), ptr %5, align 8, !tbaa !15
  %6 = getelementptr inbounds nuw i8, ptr %0, i64 320
  store i16 2, ptr %6, align 8, !tbaa !23
  %7 = getelementptr inbounds nuw i8, ptr %0, i64 544
  invoke void @_ZN6icu_776LocaleC1Ev(ptr noundef nonnull align 8 dereferenceable(217) %7)
          to label %8 unwind label %13

8:                                                ; preds = %4
  %9 = getelementptr inbounds nuw i8, ptr %0, i64 768
  store ptr getelementptr inbounds nuw inrange(-16, 88) (i8, ptr @_ZTVN6icu_7713UnicodeStringE, i64 16), ptr %9, align 8, !tbaa !15
  %10 = getelementptr inbounds nuw i8, ptr %0, i64 776
  store i16 2, ptr %10, align 8, !tbaa !23
  %11 = getelementptr inbounds nuw i8, ptr %0, i64 960
  tail call void @llvm.memset.p0.i64(ptr noundef nonnull align 8 dereferenceable(16) %11, i8 0, i64 16, i1 false)
  invoke void @_ZN6icu_7717DateFormatSymbols14initializeDataERKNS_6LocaleEPKcR10UErrorCodea(ptr noundef nonnull align 8 dereferenceable(976) %0, ptr noundef nonnull align 8 dereferenceable(217) %1, ptr noundef %2, ptr noundef nonnull align 4 dereferenceable(4) %3, i8 noundef signext 0)
          to label %12 unwind label %15

12:                                               ; preds = %8
  ret void

13:                                               ; preds = %4
  %14 = landingpad { ptr, i32 }
          cleanup
  br label %17

15:                                               ; preds = %8
  %16 = landingpad { ptr, i32 }
          cleanup
  tail call void @_ZN6icu_7713UnicodeStringD1Ev(ptr noundef nonnull align 8 dereferenceable(64) %9) #19
  tail call void @_ZN6icu_776LocaleD1Ev(ptr noundef nonnull align 8 dereferenceable(217) %7) #19
  br label %17

17:                                               ; preds = %15, %13
  %.pn.pn = phi { ptr, i32 } [ %16, %15 ], [ %14, %13 ]
  tail call void @_ZN6icu_7713UnicodeStringD1Ev(ptr noundef nonnull align 8 dereferenceable(64) %5) #19
  tail call void @_ZN6icu_777UObjectD2Ev(ptr noundef nonnull align 8 dereferenceable(8) %0) #19
  resume { ptr, i32 } %.pn.pn
}